target datalayout = "e-m:e-p270:32:32-p271:32:32-p272:64:64-i64:64-i128:128-f80:128-n8:16:32:64-S128"
target triple = "x86_64-pc-linux-gnu"

@.str.34 = private unnamed_addr constant [3 x i8] c"\\0\00", align 1
@.str.35 = private unnamed_addr constant [3 x i8] c"\\n\00", align 1
@.str.36 = private unnamed_addr constant [3 x i8] c"\\r\00", align 1
@.str.37 = private unnamed_addr constant [3 x i8] c"\\t\00", align 1
@.str.38 = private unnamed_addr constant [3 x i8] c"\\f\00", align 1
@.str.39 = private unnamed_addr constant [3 x i8] c"\\v\00", align 1
@.str.40 = private unnamed_addr constant [3 x i8] c"\\b\00", align 1
@.str.41 = private unnamed_addr constant [3 x i8] c"\\a\00", align 1
@.str.42 = private unnamed_addr constant [3 x i8] c"\\e\00", align 1
@.str.43 = private unnamed_addr constant [4 x i8] c"\\c?\00", align 1

; Function Attrs: nounwind sspstrong uwtable
define hidden ptr @ruby_escaped_char(i32 noundef %0) #0 {
  %2 = alloca ptr, align 8
  %3 = alloca i32, align 4
  store i32 %0, ptr %3, align 4, !tbaa !22
  %4 = load i32, ptr %3, align 4, !tbaa !22
  switch i32 %4, label %15 [
    i32 0, label %5
    i32 10, label %6
    i32 13, label %7
    i32 9, label %8
    i32 12, label %9
    i32 11, label %10
    i32 8, label %11
    i32 7, label %12
    i32 27, label %13
    i32 127, label %14
  ]

5:                                                ; preds = %1
  store ptr @.str.34, ptr %2, align 8
  br label %16

6:                                                ; preds = %1
  store ptr @.str.35, ptr %2, align 8
  br label %16

7:                                                ; preds = %1
  store ptr @.str.36, ptr %2, align 8
  br label %16

8:                                                ; preds = %1
  store ptr @.str.37, ptr %2, align 8
  br label %16

9:                                                ; preds = %1
  store ptr @.str.38, ptr %2, align 8
  br label %16

10:                                               ; preds = %1
  store ptr @.str.39, ptr %2, align 8
  br label %16

11:                                               ; preds = %1
  store ptr @.str.40, ptr %2, align 8
  br label %16

12:                                               ; preds = %1
  store ptr @.str.41, ptr %2, align 8
  br label %16

13:                                               ; preds = %1
  store ptr @.str.42, ptr %2, align 8
  br label %16

14:                                               ; preds = %1
  store ptr @.str.43, ptr %2, align 8
  br label %16

15:                                               ; preds = %1
  store ptr null, ptr %2, align 8
  br label %16

16:                                               ; preds = %15, %14, %13, %12, %11, %10, %9, %8, %7, %6, %5
  %17 = load ptr, ptr %2, align 8
  ret ptr %17
}