; Function Attrs: mustprogress nofree norecurse nosync nounwind sspstrong willreturn memory(none) uwtable
define hidden noundef ptr @ruby_escaped_char(i32 noundef %0) local_unnamed_addr #15 {
  switch i32 %0, label %11 [
    i32 0, label %12
    i32 10, label %2
    i32 13, label %3
    i32 9, label %4
    i32 12, label %5
    i32 11, label %6
    i32 8, label %7
    i32 7, label %8
    i32 27, label %9
    i32 127, label %10
  ]

2:                                                ; preds = %1
  br label %12

3:                                                ; preds = %1
  br label %12

4:                                                ; preds = %1
  br label %12

5:                                                ; preds = %1
  br label %12

6:                                                ; preds = %1
  br label %12

7:                                                ; preds = %1
  br label %12

8:                                                ; preds = %1
  br label %12

9:                                                ; preds = %1
  br label %12

10:                                               ; preds = %1
  br label %12

11:                                               ; preds = %1
  br label %12

12:                                               ; preds = %1, %11, %10, %9, %8, %7, %6, %5, %4, %3, %2
  %.0 = phi ptr [ null, %11 ], [ @.str.43, %10 ], [ @.str.42, %9 ], [ @.str.41, %8 ], [ @.str.40, %7 ], [ @.str.39, %6 ], [ @.str.38, %5 ], [ @.str.37, %4 ], [ @.str.36, %3 ], [ @.str.35, %2 ], [ @.str.34, %1 ]
  ret ptr %.0
}